target datalayout = "e-m:e-p270:32:32-p271:32:32-p272:64:64-i64:64-i128:128-f80:128-n8:16:32:64-S128"
target triple = "x86_64-pc-linux-gnu"

; Function Attrs: nounwind uwtable
define void @Kit_TruthPrintProfile(ptr noundef %0, i32 noundef %1) #0 {
  %3 = alloca ptr, align 8
  %4 = alloca i32, align 4
  %5 = alloca [2 x i32], align 4
  %6 = alloca i32, align 4
  store ptr %0, ptr %3, align 8, !tbaa !3
  store i32 %1, ptr %4, align 4, !tbaa !8
  call void @llvm.lifetime.start.p0(i64 8, ptr %5) #8
  %7 = load i32, ptr %4, align 4, !tbaa !8
  %8 = icmp sge i32 %7, 6
  br i1 %8, label %9, label %12

9:                                                ; preds = %2
  %10 = load ptr, ptr %3, align 8, !tbaa !3
  %11 = load i32, ptr %4, align 4, !tbaa !8
  call void @Kit_TruthPrintProfile_int(ptr noundef %10, i32 noundef %11)
  store i32 1, ptr %6, align 4
  br label %22

12:                                               ; preds = %2
  %13 = load ptr, ptr %3, align 8, !tbaa !3
  %14 = getelementptr inbounds i32, ptr %13, i64 0
  %15 = load i32, ptr %14, align 4, !tbaa !8
  %16 = getelementptr inbounds [2 x i32], ptr %5, i64 0, i64 0
  store i32 %15, ptr %16, align 4, !tbaa !8
  %17 = load ptr, ptr %3, align 8, !tbaa !3
  %18 = getelementptr inbounds i32, ptr %17, i64 0
  %19 = load i32, ptr %18, align 4, !tbaa !8
  %20 = getelementptr inbounds [2 x i32], ptr %5, i64 0, i64 1
  store i32 %19, ptr %20, align 4, !tbaa !8
  %21 = getelementptr inbounds [2 x i32], ptr %5, i64 0, i64 0
  call void @Kit_TruthPrintProfile(ptr noundef %21, i32 noundef 6)
  store i32 0, ptr %6, align 4
  br label %22

22:                                               ; preds = %12, %9
  call void @llvm.lifetime.end.p0(i64 8, ptr %5) #8
  %23 = load i32, ptr %6, align 4
  switch i32 %23, label %25 [
    i32 0, label %24
    i32 1, label %24
  ]

24:                                               ; preds = %22, %22
  ret void

25:                                               ; preds = %22
  unreachable
}