; Function Attrs: nounwind uwtable
define void @Kit_TruthPrintProfile(ptr noundef %0, i32 noundef %1) local_unnamed_addr #8 {
  %3 = alloca [2 x i32], align 4
  call void @llvm.lifetime.start.p0(i64 8, ptr nonnull %3) #13
  %4 = icmp sgt i32 %1, 5
  br i1 %4, label %5, label %6

5:                                                ; preds = %2
  tail call void @Kit_TruthPrintProfile_int(ptr noundef %0, i32 noundef %1)
  br label %9

6:                                                ; preds = %2
  %7 = load i32, ptr %0, align 4, !tbaa !3
  store i32 %7, ptr %3, align 4, !tbaa !3
  %8 = getelementptr inbounds nuw i8, ptr %3, i64 4
  store i32 %7, ptr %8, align 4, !tbaa !3
  call void @Kit_TruthPrintProfile_int(ptr noundef nonnull %3, i32 noundef 6)
  br label %9

9:                                                ; preds = %6, %5
  call void @llvm.lifetime.end.p0(i64 8, ptr nonnull %3) #13
  ret void
}